target datalayout = "e-m:e-p270:32:32-p271:32:32-p272:64:64-i64:64-i128:128-f80:128-n8:16:32:64-S128"
target triple = "x86_64-pc-linux-gnu"

%struct.t_psdata = type { ptr, %"class.std::vector", float, i32 }
%"class.std::vector" = type { %"struct.std::_Vector_base" }
%"struct.std::_Vector_base" = type { %"struct.std::_Vector_base<t_rgb, std::allocator<t_rgb>>::_Vector_impl" }
%"struct.std::_Vector_base<t_rgb, std::allocator<t_rgb>>::_Vector_impl" = type { %"struct.std::_Vector_base<t_rgb, std::allocator<t_rgb>>::_Vector_impl_data" }
%"struct.std::_Vector_base<t_rgb, std::allocator<t_rgb>>::_Vector_impl_data" = type { ptr, ptr, ptr }

@.str.49 = private unnamed_addr constant [29 x i8] c"612.5 0 translate 90 rotate\0A\00", align 1
@.str.50 = private unnamed_addr constant [31 x i8] c"-90 rotate -612.5 0 translate\0A\00", align 1

; Function Attrs: mustprogress nounwind uwtable
define void @_Z7ps_flipP8t_psdatab(ptr noundef %0, i1 noundef zeroext %1) #3 {
  %3 = alloca ptr, align 8
  %4 = alloca i8, align 1
  store ptr %0, ptr %3, align 8, !tbaa !26
  %5 = zext i1 %1 to i8
  store i8 %5, ptr %4, align 1, !tbaa !91
  %6 = load i8, ptr %4, align 1, !tbaa !91, !range !93, !noundef !94
  %7 = trunc i8 %6 to i1
  br i1 %7, label %8, label %13

8:                                                ; preds = %2
  %9 = load ptr, ptr %3, align 8, !tbaa !26
  %10 = getelementptr inbounds nuw %struct.t_psdata, ptr %9, i32 0, i32 0
  %11 = load ptr, ptr %10, align 8, !tbaa !17
  %12 = call i32 (ptr, ptr, ...) @fprintf(ptr noundef %11, ptr noundef @.str.49) #14
  br label %18

13:                                               ; preds = %2
  %14 = load ptr, ptr %3, align 8, !tbaa !26
  %15 = getelementptr inbounds nuw %struct.t_psdata, ptr %14, i32 0, i32 0
  %16 = load ptr, ptr %15, align 8, !tbaa !17
  %17 = call i32 (ptr, ptr, ...) @fprintf(ptr noundef %16, ptr noundef @.str.50) #14
  br label %18

18:                                               ; preds = %13, %8
  ret void
}