; Function Attrs: mustprogress nofree nounwind uwtable
define void @_Z7ps_flipP8t_psdatab(ptr noundef readonly captures(none) %0, i1 noundef zeroext %1) local_unnamed_addr #8 {
  %3 = load ptr, ptr %0, align 8, !tbaa !9
  br i1 %1, label %4, label %6

4:                                                ; preds = %2
  %5 = tail call i64 @fwrite(ptr nonnull @.str.49, i64 28, i64 1, ptr %3)
  br label %8

6:                                                ; preds = %2
  %7 = tail call i64 @fwrite(ptr nonnull @.str.50, i64 30, i64 1, ptr %3)
  br label %8

8:                                                ; preds = %6, %4
  ret void
}